; Function Attrs: mustprogress uwtable
define hidden noundef ptr @_ZN7datalog7context21get_ground_sat_answerEv(ptr nocapture noundef nonnull align 8 dereferenceable(3556) %this) local_unnamed_addr #3 align 2 personality ptr @__gxx_personality_v0 {
entry:
  %ref.tmp = alloca %class.obj_ref, align 8
  %m_last_ground_answer = getelementptr inbounds i8, ptr %this, i64 3536
  %0 = load ptr, ptr %m_last_ground_answer, align 8
  %cmp.i.not = icmp eq ptr %0, null
  br i1 %cmp.i.not, label %if.end, label %return

if.end:                                           ; preds = %entry
  tail call void @_ZN7datalog7context13ensure_engineEP4expr(ptr noundef nonnull align 8 dereferenceable(3556) %this, ptr noundef null)
  %m_engine = getelementptr inbounds i8, ptr %this, i64 3504
  %1 = load ptr, ptr %m_engine, align 8
  %vtable = load ptr, ptr %1, align 8
  %vfn = getelementptr inbounds i8, ptr %vtable, i64 24
  %2 = load ptr, ptr %vfn, align 8
  call void %2(ptr nonnull sret(%class.obj_ref) align 8 %ref.tmp, ptr noundef nonnull align 8 dereferenceable(48) %1)
  %3 = load ptr, ptr %m_last_ground_answer, align 8
  %4 = load ptr, ptr %ref.tmp, align 8
  store ptr %4, ptr %m_last_ground_answer, align 8
  store ptr %3, ptr %ref.tmp, align 8
  %tobool.not.i.i.i = icmp eq ptr %3, null
  br i1 %tobool.not.i.i.i, label %_ZN7obj_refI4expr11ast_managerED2Ev.exit, label %if.then.i.i.i.i

if.then.i.i.i.i:                                  ; preds = %if.end
  %m_manager.i.i.i = getelementptr inbounds i8, ptr %ref.tmp, i64 8
  %5 = load ptr, ptr %m_manager.i.i.i, align 8
  %m_ref_count.i.i.i.i.i = getelementptr inbounds i8, ptr %3, i64 8
  %6 = load i32, ptr %m_ref_count.i.i.i.i.i, align 4
  %dec.i.i.i.i.i = add i32 %6, -1
  store i32 %dec.i.i.i.i.i, ptr %m_ref_count.i.i.i.i.i, align 4
  %cmp.i.i.i.i = icmp eq i32 %dec.i.i.i.i.i, 0
  br i1 %cmp.i.i.i.i, label %if.then2.i.i.i.i, label %_ZN7obj_refI4expr11ast_managerED2Ev.exit

if.then2.i.i.i.i:                                 ; preds = %if.then.i.i.i.i
  invoke void @_ZN11ast_manager11delete_nodeEP3ast(ptr noundef nonnull align 8 dereferenceable(976) %5, ptr noundef nonnull %3)
          to label %_ZN7obj_refI4expr11ast_managerED2Ev.exit unwind label %terminate.lpad.i

terminate.lpad.i:                                 ; preds = %if.then2.i.i.i.i
  %7 = landingpad { ptr, i32 }
          catch ptr null
  %8 = extractvalue { ptr, i32 } %7, 0
  call void @__clang_call_terminate(ptr %8) #27
  unreachable

_ZN7obj_refI4expr11ast_managerED2Ev.exit:         ; preds = %if.then2.i.i.i.i, %if.then.i.i.i.i, %if.end
  %9 = load ptr, ptr %m_last_ground_answer, align 8
  br label %return

return:                                           ; preds = %entry, %_ZN7obj_refI4expr11ast_managerED2Ev.exit
  %retval.0 = phi ptr [ %9, %_ZN7obj_refI4expr11ast_managerED2Ev.exit ], [ %0, %entry ]
  ret ptr %retval.0
}